target datalayout = "e-m:e-p270:32:32-p271:32:32-p272:64:64-i64:64-i128:128-f80:128-n8:16:32:64-S128"
target triple = "x86_64-pc-linux-gnu"

%struct.lua_TValue = type { %union.Value, i32 }
%union.Value = type { ptr }
%struct.lua_State = type { ptr, i8, i8, i8, ptr, ptr, ptr, ptr, ptr, ptr, ptr, ptr, ptr, i32, i32, i16, i16, i8, i8, i32, i32, ptr, %struct.lua_TValue, %struct.lua_TValue, ptr, ptr, ptr, i64 }
%struct.global_State = type { %struct.stringtable, ptr, ptr, i8, i8, i32, ptr, ptr, ptr, ptr, ptr, ptr, %struct.Mbuffer, i64, i64, i64, i64, i32, i32, ptr, %struct.lua_TValue, ptr, %struct.UpVal, [9 x ptr], [17 x ptr] }
%struct.stringtable = type { ptr, i32, i32 }
%struct.Mbuffer = type { ptr, i64, i64 }
%struct.UpVal = type { ptr, i8, i8, ptr, %union.anon }
%union.anon = type { %struct.lua_TValue }

; Function Attrs: nounwind uwtable
define dso_local void @lua_pushlstring(ptr noundef %0, ptr noundef %1, i64 noundef %2) #0 {
  %4 = alloca ptr, align 8
  %5 = alloca ptr, align 8
  %6 = alloca i64, align 8
  %7 = alloca ptr, align 8
  store ptr %0, ptr %4, align 8, !tbaa !4
  store ptr %1, ptr %5, align 8, !tbaa !52
  store i64 %2, ptr %6, align 8, !tbaa !55
  %8 = load ptr, ptr %4, align 8, !tbaa !4
  %9 = getelementptr inbounds nuw %struct.lua_State, ptr %8, i32 0, i32 6
  %10 = load ptr, ptr %9, align 8, !tbaa !35
  %11 = getelementptr inbounds nuw %struct.global_State, ptr %10, i32 0, i32 14
  %12 = load i64, ptr %11, align 8, !tbaa !43
  %13 = load ptr, ptr %4, align 8, !tbaa !4
  %14 = getelementptr inbounds nuw %struct.lua_State, ptr %13, i32 0, i32 6
  %15 = load ptr, ptr %14, align 8, !tbaa !35
  %16 = getelementptr inbounds nuw %struct.global_State, ptr %15, i32 0, i32 13
  %17 = load i64, ptr %16, align 8, !tbaa !44
  %18 = icmp uge i64 %12, %17
  br i1 %18, label %19, label %21

19:                                               ; preds = %3
  %20 = load ptr, ptr %4, align 8, !tbaa !4
  call void @luaC_step(ptr noundef %20)
  br label %21

21:                                               ; preds = %19, %3
  call void @llvm.lifetime.start.p0(i64 8, ptr %7) #6
  %22 = load ptr, ptr %4, align 8, !tbaa !4
  %23 = getelementptr inbounds nuw %struct.lua_State, ptr %22, i32 0, i32 4
  %24 = load ptr, ptr %23, align 8, !tbaa !11
  store ptr %24, ptr %7, align 8, !tbaa !9
  %25 = load ptr, ptr %4, align 8, !tbaa !4
  %26 = load ptr, ptr %5, align 8, !tbaa !52
  %27 = load i64, ptr %6, align 8, !tbaa !55
  %28 = call ptr @luaS_newlstr(ptr noundef %25, ptr noundef %26, i64 noundef %27)
  %29 = load ptr, ptr %7, align 8, !tbaa !9
  %30 = getelementptr inbounds nuw %struct.lua_TValue, ptr %29, i32 0, i32 0
  store ptr %28, ptr %30, align 8, !tbaa !23
  %31 = load ptr, ptr %7, align 8, !tbaa !9
  %32 = getelementptr inbounds nuw %struct.lua_TValue, ptr %31, i32 0, i32 1
  store i32 4, ptr %32, align 8, !tbaa !24
  call void @llvm.lifetime.end.p0(i64 8, ptr %7) #6
  %33 = load ptr, ptr %4, align 8, !tbaa !4
  %34 = getelementptr inbounds nuw %struct.lua_State, ptr %33, i32 0, i32 4
  %35 = load ptr, ptr %34, align 8, !tbaa !11
  %36 = getelementptr inbounds nuw %struct.lua_TValue, ptr %35, i32 1
  store ptr %36, ptr %34, align 8, !tbaa !11
  ret void
}

; Function Attrs: nounwind uwtable
define dso_local void @lua_pushnil(ptr noundef %0) #0 {
  %2 = alloca ptr, align 8
  store ptr %0, ptr %2, align 8, !tbaa !4
  %3 = load ptr, ptr %2, align 8, !tbaa !4
  %4 = getelementptr inbounds nuw %struct.lua_State, ptr %3, i32 0, i32 4
  %5 = load ptr, ptr %4, align 8, !tbaa !11
  %6 = getelementptr inbounds nuw %struct.lua_TValue, ptr %5, i32 0, i32 1
  store i32 0, ptr %6, align 8, !tbaa !24
  %7 = load ptr, ptr %2, align 8, !tbaa !4
  %8 = getelementptr inbounds nuw %struct.lua_State, ptr %7, i32 0, i32 4
  %9 = load ptr, ptr %8, align 8, !tbaa !11
  %10 = getelementptr inbounds nuw %struct.lua_TValue, ptr %9, i32 1
  store ptr %10, ptr %8, align 8, !tbaa !11
  ret void
}

; Function Attrs: nounwind uwtable
define dso_local void @lua_pushstring(ptr noundef %0, ptr noundef %1) #0 {
  %3 = alloca ptr, align 8
  %4 = alloca ptr, align 8
  store ptr %0, ptr %3, align 8, !tbaa !4
  store ptr %1, ptr %4, align 8, !tbaa !52
  %5 = load ptr, ptr %4, align 8, !tbaa !52
  %6 = icmp eq ptr %5, null
  br i1 %6, label %7, label %9

7:                                                ; preds = %2
  %8 = load ptr, ptr %3, align 8, !tbaa !4
  call void @lua_pushnil(ptr noundef %8)
  br label %14

9:                                                ; preds = %2
  %10 = load ptr, ptr %3, align 8, !tbaa !4
  %11 = load ptr, ptr %4, align 8, !tbaa !52
  %12 = load ptr, ptr %4, align 8, !tbaa !52
  %13 = call i64 @strlen(ptr noundef %12) #7
  call void @lua_pushlstring(ptr noundef %10, ptr noundef %11, i64 noundef %13)
  br label %14

14:                                               ; preds = %9, %7
  ret void
}