; Function Attrs: nounwind uwtable
define dso_local void @lua_pushstring(ptr noundef %0, ptr noundef %1) local_unnamed_addr #2 {
  %3 = icmp eq ptr %1, null
  br i1 %3, label %4, label %9

4:                                                ; preds = %2
  %5 = getelementptr inbounds nuw i8, ptr %0, i64 16
  %6 = load ptr, ptr %5, align 8, !tbaa !4
  %7 = getelementptr inbounds nuw i8, ptr %6, i64 8
  store i32 0, ptr %7, align 8, !tbaa !20
  %8 = getelementptr inbounds nuw i8, ptr %6, i64 16
  store ptr %8, ptr %5, align 8, !tbaa !4
  br label %24

9:                                                ; preds = %2
  %10 = tail call i64 @strlen(ptr noundef nonnull dereferenceable(1) %1) #15
  %11 = getelementptr inbounds nuw i8, ptr %0, i64 32
  %12 = load ptr, ptr %11, align 8, !tbaa !29
  %13 = getelementptr inbounds nuw i8, ptr %12, i64 120
  %14 = load i64, ptr %13, align 8, !tbaa !38
  %15 = getelementptr inbounds nuw i8, ptr %12, i64 112
  %16 = load i64, ptr %15, align 8, !tbaa !39
  %.not.i = icmp ult i64 %14, %16
  br i1 %.not.i, label %lua_pushlstring.exit, label %17

17:                                               ; preds = %9
  tail call void @luaC_step(ptr noundef nonnull %0) #14
  br label %lua_pushlstring.exit

lua_pushlstring.exit:                             ; preds = %9, %17
  %18 = getelementptr inbounds nuw i8, ptr %0, i64 16
  %19 = load ptr, ptr %18, align 8, !tbaa !4
  %20 = tail call ptr @luaS_newlstr(ptr noundef nonnull %0, ptr noundef nonnull %1, i64 noundef %10) #14
  store ptr %20, ptr %19, align 8, !tbaa !19
  %21 = getelementptr inbounds nuw i8, ptr %19, i64 8
  store i32 4, ptr %21, align 8, !tbaa !20
  %22 = load ptr, ptr %18, align 8, !tbaa !4
  %23 = getelementptr inbounds nuw i8, ptr %22, i64 16
  store ptr %23, ptr %18, align 8, !tbaa !4
  br label %24

24:                                               ; preds = %lua_pushlstring.exit, %4
  ret void
}